target datalayout = "e-m:e-p270:32:32-p271:32:32-p272:64:64-i64:64-i128:128-f80:128-n8:16:32:64-S128"
target triple = "x86_64-unknown-linux-gnu"

%"class.std::vector.8" = type { %"struct.std::_Vector_base.9" }
%"struct.std::_Vector_base.9" = type { %"struct.std::_Vector_base<double, std::allocator<double>>::_Vector_impl" }
%"struct.std::_Vector_base<double, std::allocator<double>>::_Vector_impl" = type { %"struct.std::_Vector_base<double, std::allocator<double>>::_Vector_impl_data" }
%"struct.std::_Vector_base<double, std::allocator<double>>::_Vector_impl_data" = type { ptr, ptr, ptr }
%"class.OpenColorIO_v2_4dev::ExponentWithLinearTransformImpl" = type { %"class.OpenColorIO_v2_4dev::ExponentWithLinearTransform", %"class.OpenColorIO_v2_4dev::GammaOpData" }
%"class.OpenColorIO_v2_4dev::ExponentWithLinearTransform" = type { %"class.OpenColorIO_v2_4dev::Transform" }
%"class.OpenColorIO_v2_4dev::Transform" = type { ptr }
%"class.OpenColorIO_v2_4dev::GammaOpData" = type { %"class.OpenColorIO_v2_4dev::OpData", i32, %"class.std::vector.8", %"class.std::vector.8", %"class.std::vector.8", %"class.std::vector.8" }
%"class.OpenColorIO_v2_4dev::OpData" = type { ptr, %"class.std::mutex", %"class.OpenColorIO_v2_4dev::FormatMetadataImpl" }
%"class.std::mutex" = type { %"class.std::__mutex_base" }
%"class.std::__mutex_base" = type { %union.pthread_mutex_t }
%union.pthread_mutex_t = type { %struct.__pthread_mutex_s }
%struct.__pthread_mutex_s = type { i32, i32, i32, i32, i32, i16, i16, %struct.__pthread_internal_list }
%struct.__pthread_internal_list = type { ptr, ptr }
%"class.OpenColorIO_v2_4dev::FormatMetadataImpl" = type { %"class.OpenColorIO_v2_4dev::FormatMetadata", %"class.std::__cxx11::basic_string", %"class.std::__cxx11::basic_string", %"class.std::vector", %"class.std::vector.3" }
%"class.OpenColorIO_v2_4dev::FormatMetadata" = type { ptr }
%"class.std::__cxx11::basic_string" = type { %"struct.std::__cxx11::basic_string<char>::_Alloc_hider", i64, %union.anon }
%"struct.std::__cxx11::basic_string<char>::_Alloc_hider" = type { ptr }
%union.anon = type { i64, [8 x i8] }
%"class.std::vector" = type { %"struct.std::_Vector_base" }
%"struct.std::_Vector_base" = type { %"struct.std::_Vector_base<std::pair<std::__cxx11::basic_string<char>, std::__cxx11::basic_string<char>>, std::allocator<std::pair<std::__cxx11::basic_string<char>, std::__cxx11::basic_string<char>>>>::_Vector_impl" }
%"struct.std::_Vector_base<std::pair<std::__cxx11::basic_string<char>, std::__cxx11::basic_string<char>>, std::allocator<std::pair<std::__cxx11::basic_string<char>, std::__cxx11::basic_string<char>>>>::_Vector_impl" = type { %"struct.std::_Vector_base<std::pair<std::__cxx11::basic_string<char>, std::__cxx11::basic_string<char>>, std::allocator<std::pair<std::__cxx11::basic_string<char>, std::__cxx11::basic_string<char>>>>::_Vector_impl_data" }
%"struct.std::_Vector_base<std::pair<std::__cxx11::basic_string<char>, std::__cxx11::basic_string<char>>, std::allocator<std::pair<std::__cxx11::basic_string<char>, std::__cxx11::basic_string<char>>>>::_Vector_impl_data" = type { ptr, ptr, ptr }
%"class.std::vector.3" = type { %"struct.std::_Vector_base.4" }
%"struct.std::_Vector_base.4" = type { %"struct.std::_Vector_base<OpenColorIO_v2_4dev::FormatMetadataImpl, std::allocator<OpenColorIO_v2_4dev::FormatMetadataImpl>>::_Vector_impl" }
%"struct.std::_Vector_base<OpenColorIO_v2_4dev::FormatMetadataImpl, std::allocator<OpenColorIO_v2_4dev::FormatMetadataImpl>>::_Vector_impl" = type { %"struct.std::_Vector_base<OpenColorIO_v2_4dev::FormatMetadataImpl, std::allocator<OpenColorIO_v2_4dev::FormatMetadataImpl>>::_Vector_impl_data" }
%"struct.std::_Vector_base<OpenColorIO_v2_4dev::FormatMetadataImpl, std::allocator<OpenColorIO_v2_4dev::FormatMetadataImpl>>::_Vector_impl_data" = type { ptr, ptr, ptr }
%"class.std::allocator" = type { i8 }

@_ZTIN19OpenColorIO_v2_4dev9ExceptionE = external constant ptr
@.str = private unnamed_addr constant [48 x i8] c"ExponentWithLinearTransform validation failed: \00", align 1

; Function Attrs: mustprogress nounwind uwtable
define linkonce_odr hidden noundef nonnull align 8 dereferenceable(272) ptr @_ZNK19OpenColorIO_v2_4dev31ExponentWithLinearTransformImpl4dataEv(ptr noundef nonnull align 8 dereferenceable(280) %this) #3 comdat align 2 {
entry:
  %this.addr = alloca ptr, align 8
  store ptr %this, ptr %this.addr, align 8
  %this1 = load ptr, ptr %this.addr, align 8
  %m_data = getelementptr inbounds %"class.OpenColorIO_v2_4dev::ExponentWithLinearTransformImpl", ptr %this1, i32 0, i32 1
  ret ptr %m_data
}

; Function Attrs: mustprogress uwtable
define hidden void @_ZNK19OpenColorIO_v2_4dev31ExponentWithLinearTransformImpl8validateEv(ptr noundef nonnull align 8 dereferenceable(280) %this) unnamed_addr #0 align 2 personality ptr @__gxx_personality_v0 {
entry:
  %this.addr = alloca ptr, align 8
  %exn.slot = alloca ptr, align 8
  %ehselector.slot = alloca i32, align 4
  %ex = alloca ptr, align 8
  %errMsg = alloca %"class.std::__cxx11::basic_string", align 8
  %ref.tmp = alloca %"class.std::allocator", align 1
  store ptr %this, ptr %this.addr, align 8
  %this1 = load ptr, ptr %this.addr, align 8
  invoke void @_ZNK19OpenColorIO_v2_4dev9Transform8validateEv(ptr noundef nonnull align 8 dereferenceable(8) %this1)
          to label %invoke.cont unwind label %lpad

invoke.cont:                                      ; preds = %entry
  %call = call noundef nonnull align 8 dereferenceable(272) ptr @_ZNK19OpenColorIO_v2_4dev31ExponentWithLinearTransformImpl4dataEv(ptr noundef nonnull align 8 dereferenceable(280) %this1) #14
  %vtable = load ptr, ptr %call, align 8
  %vfn = getelementptr inbounds ptr, ptr %vtable, i64 2
  %0 = load ptr, ptr %vfn, align 8
  invoke void %0(ptr noundef nonnull align 8 dereferenceable(272) %call)
          to label %invoke.cont2 unwind label %lpad

invoke.cont2:                                     ; preds = %invoke.cont
  br label %try.cont

lpad:                                             ; preds = %invoke.cont, %entry
  %1 = landingpad { ptr, i32 }
          catch ptr @_ZTIN19OpenColorIO_v2_4dev9ExceptionE
  %2 = extractvalue { ptr, i32 } %1, 0
  store ptr %2, ptr %exn.slot, align 8
  %3 = extractvalue { ptr, i32 } %1, 1
  store i32 %3, ptr %ehselector.slot, align 4
  br label %catch.dispatch

catch.dispatch:                                   ; preds = %lpad
  %sel = load i32, ptr %ehselector.slot, align 4
  %4 = call i32 @llvm.eh.typeid.for(ptr @_ZTIN19OpenColorIO_v2_4dev9ExceptionE) #14
  %matches = icmp eq i32 %sel, %4
  br i1 %matches, label %catch, label %eh.resume

catch:                                            ; preds = %catch.dispatch
  %exn = load ptr, ptr %exn.slot, align 8
  %5 = call ptr @__cxa_begin_catch(ptr %exn) #14
  store ptr %5, ptr %ex, align 8
  call void @_ZNSaIcEC1Ev(ptr noundef nonnull align 1 dereferenceable(1) %ref.tmp) #14
  invoke void @_ZNSt7__cxx1112basic_stringIcSt11char_traitsIcESaIcEEC1EPKcRKS3_(ptr noundef nonnull align 8 dereferenceable(32) %errMsg, ptr noundef @.str, ptr noundef nonnull align 1 dereferenceable(1) %ref.tmp)
          to label %invoke.cont4 unwind label %lpad3

invoke.cont4:                                     ; preds = %catch
  call void @_ZNSaIcED1Ev(ptr noundef nonnull align 1 dereferenceable(1) %ref.tmp) #14
  %6 = load ptr, ptr %ex, align 8
  %vtable5 = load ptr, ptr %6, align 8
  %vfn6 = getelementptr inbounds ptr, ptr %vtable5, i64 2
  %7 = load ptr, ptr %vfn6, align 8
  %call7 = call noundef ptr %7(ptr noundef nonnull align 8 dereferenceable(16) %6) #14
  %call10 = invoke noundef nonnull align 8 dereferenceable(32) ptr @_ZNSt7__cxx1112basic_stringIcSt11char_traitsIcESaIcEEpLEPKc(ptr noundef nonnull align 8 dereferenceable(32) %errMsg, ptr noundef %call7)
          to label %invoke.cont9 unwind label %lpad8

invoke.cont9:                                     ; preds = %invoke.cont4
  %exception = call ptr @__cxa_allocate_exception(i64 16) #14
  %call11 = call noundef ptr @_ZNKSt7__cxx1112basic_stringIcSt11char_traitsIcESaIcEE5c_strEv(ptr noundef nonnull align 8 dereferenceable(32) %errMsg) #14
  invoke void @_ZN19OpenColorIO_v2_4dev9ExceptionC1EPKc(ptr noundef nonnull align 8 dereferenceable(16) %exception, ptr noundef %call11)
          to label %invoke.cont13 unwind label %lpad12

invoke.cont13:                                    ; preds = %invoke.cont9
  invoke void @__cxa_throw(ptr %exception, ptr @_ZTIN19OpenColorIO_v2_4dev9ExceptionE, ptr @_ZN19OpenColorIO_v2_4dev9ExceptionD1Ev) #16
          to label %unreachable unwind label %lpad8

lpad3:                                            ; preds = %catch
  %8 = landingpad { ptr, i32 }
          cleanup
  %9 = extractvalue { ptr, i32 } %8, 0
  store ptr %9, ptr %exn.slot, align 8
  %10 = extractvalue { ptr, i32 } %8, 1
  store i32 %10, ptr %ehselector.slot, align 4
  call void @_ZNSaIcED1Ev(ptr noundef nonnull align 1 dereferenceable(1) %ref.tmp) #14
  br label %ehcleanup14

lpad8:                                            ; preds = %invoke.cont13, %invoke.cont4
  %11 = landingpad { ptr, i32 }
          cleanup
  %12 = extractvalue { ptr, i32 } %11, 0
  store ptr %12, ptr %exn.slot, align 8
  %13 = extractvalue { ptr, i32 } %11, 1
  store i32 %13, ptr %ehselector.slot, align 4
  br label %ehcleanup

lpad12:                                           ; preds = %invoke.cont9
  %14 = landingpad { ptr, i32 }
          cleanup
  %15 = extractvalue { ptr, i32 } %14, 0
  store ptr %15, ptr %exn.slot, align 8
  %16 = extractvalue { ptr, i32 } %14, 1
  store i32 %16, ptr %ehselector.slot, align 4
  call void @__cxa_free_exception(ptr %exception) #14
  br label %ehcleanup

ehcleanup:                                        ; preds = %lpad12, %lpad8
  call void @_ZNSt7__cxx1112basic_stringIcSt11char_traitsIcESaIcEED1Ev(ptr noundef nonnull align 8 dereferenceable(32) %errMsg) #14
  br label %ehcleanup14

ehcleanup14:                                      ; preds = %ehcleanup, %lpad3
  invoke void @__cxa_end_catch()
          to label %invoke.cont15 unwind label %terminate.lpad

invoke.cont15:                                    ; preds = %ehcleanup14
  br label %eh.resume

try.cont:                                         ; preds = %invoke.cont2
  ret void

eh.resume:                                        ; preds = %invoke.cont15, %catch.dispatch
  %exn16 = load ptr, ptr %exn.slot, align 8
  %sel17 = load i32, ptr %ehselector.slot, align 4
  %lpad.val = insertvalue { ptr, i32 } poison, ptr %exn16, 0
  %lpad.val18 = insertvalue { ptr, i32 } %lpad.val, i32 %sel17, 1
  resume { ptr, i32 } %lpad.val18

terminate.lpad:                                   ; preds = %ehcleanup14
  %17 = landingpad { ptr, i32 }
          catch ptr null
  %18 = extractvalue { ptr, i32 } %17, 0
  call void @__clang_call_terminate(ptr %18) #15
  unreachable

unreachable:                                      ; preds = %invoke.cont13
  unreachable
}